; Function Attrs: mustprogress uwtable
define void @_ZN7rocksdb14ThreadLocalPtr10StaticMeta4FoldEjSt8functionIFvPvS3_EES3_(ptr noundef nonnull readonly align 8 dereferenceable(228) %0, i32 noundef %1, ptr noundef %2, ptr noundef %3) local_unnamed_addr #0 align 2 personality ptr @__gxx_personality_v0 {
  %5 = alloca ptr, align 8
  %6 = alloca ptr, align 8
  %7 = load atomic i8, ptr @_ZGVZN7rocksdb14ThreadLocalPtr8InstanceEvE4inst acquire, align 8
  %8 = icmp eq i8 %7, 0
  br i1 %8, label %9, label %_ZN7rocksdb14ThreadLocalPtr10StaticMeta5MutexEv.exit, !prof !4

9:                                                ; preds = %4
  %10 = tail call i32 @__cxa_guard_acquire(ptr nonnull @_ZGVZN7rocksdb14ThreadLocalPtr8InstanceEvE4inst) #19
  %.not.i.i = icmp eq i32 %10, 0
  br i1 %.not.i.i, label %_ZN7rocksdb14ThreadLocalPtr10StaticMeta5MutexEv.exit, label %11

11:                                               ; preds = %9
  %12 = invoke noalias noundef nonnull dereferenceable(232) ptr @_Znwm(i64 noundef 232) #20
          to label %13 unwind label %15

13:                                               ; preds = %11
  invoke void @_ZN7rocksdb14ThreadLocalPtr10StaticMetaC1Ev(ptr noundef nonnull align 8 dereferenceable(228) %12)
          to label %14 unwind label %17

14:                                               ; preds = %13
  store ptr %12, ptr @_ZZN7rocksdb14ThreadLocalPtr8InstanceEvE4inst, align 8, !tbaa !5
  tail call void @__cxa_guard_release(ptr nonnull @_ZGVZN7rocksdb14ThreadLocalPtr8InstanceEvE4inst) #19
  br label %_ZN7rocksdb14ThreadLocalPtr10StaticMeta5MutexEv.exit

15:                                               ; preds = %11
  %16 = landingpad { ptr, i32 }
          cleanup
  br label %19

17:                                               ; preds = %13
  %18 = landingpad { ptr, i32 }
          cleanup
  tail call void @_ZdlPvm(ptr noundef nonnull %12, i64 noundef 232) #21
  br label %19

common.resume:                                    ; preds = %47, %19
  %common.resume.op = phi { ptr, i32 } [ %.pn.i.i, %19 ], [ %lpad.phi, %47 ]
  resume { ptr, i32 } %common.resume.op

19:                                               ; preds = %17, %15
  %.pn.i.i = phi { ptr, i32 } [ %18, %17 ], [ %16, %15 ]
  tail call void @__cxa_guard_abort(ptr nonnull @_ZGVZN7rocksdb14ThreadLocalPtr8InstanceEvE4inst) #19
  br label %common.resume

_ZN7rocksdb14ThreadLocalPtr10StaticMeta5MutexEv.exit: ; preds = %4, %9, %14
  %20 = load ptr, ptr @_ZZN7rocksdb14ThreadLocalPtr8InstanceEvE4inst, align 8, !tbaa !5
  %21 = getelementptr inbounds nuw i8, ptr %20, i64 184
  tail call void @_ZN7rocksdb4port5Mutex4LockEv(ptr noundef nonnull align 8 dereferenceable(40) %21)
  %22 = getelementptr inbounds nuw i8, ptr %0, i64 80
  %23 = getelementptr inbounds nuw i8, ptr %0, i64 104
  %.018 = load ptr, ptr %23, align 8, !tbaa !41
  %.not19 = icmp eq ptr %.018, %22
  br i1 %.not19, label %._crit_edge, label %.lr.ph

.lr.ph:                                           ; preds = %_ZN7rocksdb14ThreadLocalPtr10StaticMeta5MutexEv.exit
  %24 = zext i32 %1 to i64
  %25 = getelementptr inbounds nuw i8, ptr %2, i64 16
  %26 = getelementptr inbounds nuw i8, ptr %2, i64 24
  br label %30

._crit_edge:                                      ; preds = %51, %_ZN7rocksdb14ThreadLocalPtr10StaticMeta5MutexEv.exit
  invoke void @_ZN7rocksdb4port5Mutex6UnlockEv(ptr noundef nonnull align 8 dereferenceable(40) %21)
          to label %_ZN7rocksdb9MutexLockD2Ev.exit unwind label %27

27:                                               ; preds = %._crit_edge
  %28 = landingpad { ptr, i32 }
          catch ptr null
  %29 = extractvalue { ptr, i32 } %28, 0
  call void @__clang_call_terminate(ptr %29) #22
  unreachable

_ZN7rocksdb9MutexLockD2Ev.exit:                   ; preds = %._crit_edge
  ret void

30:                                               ; preds = %.lr.ph, %51
  %.020 = phi ptr [ %.018, %.lr.ph ], [ %.0, %51 ]
  %31 = getelementptr inbounds nuw i8, ptr %.020, i64 8
  %32 = load ptr, ptr %31, align 8, !tbaa !70
  %33 = load ptr, ptr %.020, align 8, !tbaa !38
  %34 = ptrtoint ptr %32 to i64
  %35 = ptrtoint ptr %33 to i64
  %36 = sub i64 %34, %35
  %37 = ashr exact i64 %36, 3
  %38 = icmp ugt i64 %37, %24
  br i1 %38, label %39, label %51

39:                                               ; preds = %30
  %40 = getelementptr inbounds nuw %"struct.rocksdb::Entry", ptr %33, i64 %24
  %41 = load atomic i64, ptr %40 seq_cst, align 8
  %.not13 = icmp eq i64 %41, 0
  br i1 %.not13, label %51, label %42

42:                                               ; preds = %39
  %.0.i.i = inttoptr i64 %41 to ptr
  call void @llvm.lifetime.start.p0(i64 8, ptr nonnull %5)
  call void @llvm.lifetime.start.p0(i64 8, ptr nonnull %6)
  store ptr %.0.i.i, ptr %5, align 8, !tbaa !75
  store ptr %3, ptr %6, align 8, !tbaa !75
  %43 = load ptr, ptr %25, align 8, !tbaa !87
  %.not.i.i14 = icmp eq ptr %43, null
  br i1 %.not.i.i14, label %44, label %45

44:                                               ; preds = %42
  invoke void @_ZSt25__throw_bad_function_callv() #23
          to label %.noexc unwind label %.loopexit.split-lp

.noexc:                                           ; preds = %44
  unreachable

45:                                               ; preds = %42
  %46 = load ptr, ptr %26, align 8, !tbaa !89
  invoke void %46(ptr noundef nonnull align 8 dereferenceable(32) %2, ptr noundef nonnull align 8 dereferenceable(8) %5, ptr noundef nonnull align 8 dereferenceable(8) %6)
          to label %_ZNKSt8functionIFvPvS0_EEclES0_S0_.exit unwind label %.loopexit

_ZNKSt8functionIFvPvS0_EEclES0_S0_.exit:          ; preds = %45
  call void @llvm.lifetime.end.p0(i64 8, ptr nonnull %5)
  call void @llvm.lifetime.end.p0(i64 8, ptr nonnull %6)
  br label %51

.loopexit:                                        ; preds = %45
  %lpad.loopexit = landingpad { ptr, i32 }
          cleanup
  br label %47

.loopexit.split-lp:                               ; preds = %44
  %lpad.loopexit.split-lp = landingpad { ptr, i32 }
          cleanup
  br label %47

47:                                               ; preds = %.loopexit.split-lp, %.loopexit
  %lpad.phi = phi { ptr, i32 } [ %lpad.loopexit, %.loopexit ], [ %lpad.loopexit.split-lp, %.loopexit.split-lp ]
  invoke void @_ZN7rocksdb4port5Mutex6UnlockEv(ptr noundef nonnull align 8 dereferenceable(40) %21)
          to label %common.resume unwind label %48

48:                                               ; preds = %47
  %49 = landingpad { ptr, i32 }
          catch ptr null
  %50 = extractvalue { ptr, i32 } %49, 0
  call void @__clang_call_terminate(ptr %50) #22
  unreachable

51:                                               ; preds = %_ZNKSt8functionIFvPvS0_EEclES0_S0_.exit, %39, %30
  %52 = getelementptr inbounds nuw i8, ptr %.020, i64 24
  %.0 = load ptr, ptr %52, align 8, !tbaa !41
  %.not = icmp eq ptr %.0, %22
  br i1 %.not, label %._crit_edge, label %30, !llvm.loop !91
}